; Function Attrs: mustprogress uwtable
define void @_ZNK3gmx25AnalysisDataModuleManager16notifyDataFinishEv(ptr noundef nonnull readonly align 8 captures(none) dereferenceable(8) %0) local_unnamed_addr #2 align 2 {
  %2 = load ptr, ptr %0, align 8, !tbaa !71
  %3 = getelementptr inbounds nuw i8, ptr %2, i64 32
  %4 = load i32, ptr %3, align 8, !tbaa !19
  %5 = icmp eq i32 %4, 1
  br i1 %5, label %7, label %6

6:                                                ; preds = %1
  tail call void @_ZN3gmx8internal13assertHandlerEPKcS2_S2_S2_i(ptr noundef nonnull @.str.20, ptr noundef nonnull @.str.21, ptr noundef nonnull @"__PRETTY_FUNCTION__._ZZNK3gmx25AnalysisDataModuleManager16notifyDataFinishEvENK3$_0clEv", ptr noundef nonnull @.str.1, i32 noundef 497) #20
  unreachable

7:                                                ; preds = %1
  store i32 3, ptr %3, align 8, !tbaa !19
  %8 = load ptr, ptr %2, align 8, !tbaa !77
  %9 = getelementptr inbounds nuw i8, ptr %2, i64 8
  %10 = load ptr, ptr %9, align 8, !tbaa !77
  %.not7 = icmp eq ptr %8, %10
  br i1 %.not7, label %._crit_edge, label %.lr.ph

.lr.ph:                                           ; preds = %7, %.lr.ph
  %.sroa.03.08 = phi ptr [ %15, %.lr.ph ], [ %8, %7 ]
  %11 = load ptr, ptr %.sroa.03.08, align 8, !tbaa !78
  %12 = load ptr, ptr %11, align 8, !tbaa !21
  %13 = getelementptr inbounds nuw i8, ptr %12, i64 72
  %14 = load ptr, ptr %13, align 8
  tail call void %14(ptr noundef nonnull align 8 dereferenceable(8) %11)
  %15 = getelementptr inbounds nuw i8, ptr %.sroa.03.08, i64 24
  %16 = load ptr, ptr %0, align 8, !tbaa !71
  %17 = getelementptr inbounds nuw i8, ptr %16, i64 8
  %18 = load ptr, ptr %17, align 8, !tbaa !77
  %.not = icmp eq ptr %15, %18
  br i1 %.not, label %._crit_edge, label %.lr.ph, !llvm.loop !107

._crit_edge:                                      ; preds = %.lr.ph, %7
  ret void
}